target datalayout = "e-m:e-p270:32:32-p271:32:32-p272:64:64-i64:64-i128:128-f80:128-n8:16:32:64-S128"
target triple = "x86_64-pc-linux-gnu"

%struct.block_handler = type { ptr, ptr }
%struct.wtapng_block_s = type { i32, i32, ptr, ptr, ptr }
%struct.section_info_t = type { i32, i16, i16, ptr, i64, i32, i64, i64 }
%struct.pcapng_block_header_s = type { i32, i32 }

@block_handlers = internal global ptr null, align 8
@.str.52 = private unnamed_addr constant [94 x i8] c"pcapng: total block length %u of an unknown block type is less than the minimum block size %u\00", align 1

; Function Attrs: nounwind uwtable
define internal i32 @pcapng_read_unknown_block(ptr noundef %0, ptr noundef %1, ptr noundef %2, ptr noundef %3, ptr noundef %4, ptr noundef %5) #0 {
  %7 = alloca i32, align 4
  %8 = alloca ptr, align 8
  %9 = alloca ptr, align 8
  %10 = alloca ptr, align 8
  %11 = alloca ptr, align 8
  %12 = alloca ptr, align 8
  %13 = alloca ptr, align 8
  %14 = alloca i32, align 4
  %15 = alloca ptr, align 8
  store ptr %0, ptr %8, align 8
  store ptr %1, ptr %9, align 8
  store ptr %2, ptr %10, align 8
  store ptr %3, ptr %11, align 8
  store ptr %4, ptr %12, align 8
  store ptr %5, ptr %13, align 8
  %16 = load ptr, ptr %9, align 8
  %17 = getelementptr inbounds %struct.pcapng_block_header_s, ptr %16, i32 0, i32 1
  %18 = load i32, ptr %17, align 4
  %19 = icmp ult i32 %18, 12
  br i1 %19, label %20, label %27

20:                                               ; preds = %6
  %21 = load ptr, ptr %12, align 8
  store i32 -13, ptr %21, align 4
  %22 = load ptr, ptr %9, align 8
  %23 = getelementptr inbounds %struct.pcapng_block_header_s, ptr %22, i32 0, i32 1
  %24 = load i32, ptr %23, align 4
  %25 = call noalias ptr (ptr, ptr, ...) @wmem_strdup_printf(ptr noundef null, ptr noundef @.str.52, i32 noundef %24, i32 noundef 12)
  %26 = load ptr, ptr %13, align 8
  store ptr %25, ptr %26, align 8
  store i32 0, ptr %7, align 4
  br label %71

27:                                               ; preds = %6
  %28 = load ptr, ptr %9, align 8
  %29 = getelementptr inbounds %struct.pcapng_block_header_s, ptr %28, i32 0, i32 1
  %30 = load i32, ptr %29, align 4
  %31 = sub i32 %30, 12
  store i32 %31, ptr %14, align 4
  %32 = load ptr, ptr @block_handlers, align 8
  %33 = icmp ne ptr %32, null
  br i1 %33, label %34, label %59

34:                                               ; preds = %27
  %35 = load ptr, ptr @block_handlers, align 8
  %36 = load ptr, ptr %9, align 8
  %37 = getelementptr inbounds %struct.pcapng_block_header_s, ptr %36, i32 0, i32 0
  %38 = load i32, ptr %37, align 4
  %39 = zext i32 %38 to i64
  %40 = inttoptr i64 %39 to ptr
  %41 = call ptr @g_hash_table_lookup(ptr noundef %35, ptr noundef %40)
  store ptr %41, ptr %15, align 8
  %42 = icmp ne ptr %41, null
  br i1 %42, label %43, label %59

43:                                               ; preds = %34
  %44 = load ptr, ptr %15, align 8
  %45 = getelementptr inbounds %struct.block_handler, ptr %44, i32 0, i32 0
  %46 = load ptr, ptr %45, align 8
  %47 = load ptr, ptr %8, align 8
  %48 = load i32, ptr %14, align 4
  %49 = load ptr, ptr %10, align 8
  %50 = getelementptr inbounds %struct.section_info_t, ptr %49, i32 0, i32 0
  %51 = load i32, ptr %50, align 8
  %52 = load ptr, ptr %11, align 8
  %53 = load ptr, ptr %12, align 8
  %54 = load ptr, ptr %13, align 8
  %55 = call i32 %46(ptr noundef %47, i32 noundef %48, i32 noundef %51, ptr noundef %52, ptr noundef %53, ptr noundef %54)
  %56 = icmp ne i32 %55, 0
  br i1 %56, label %58, label %57

57:                                               ; preds = %43
  store i32 0, ptr %7, align 4
  br label %71

58:                                               ; preds = %43
  br label %70

59:                                               ; preds = %34, %27
  %60 = load ptr, ptr %8, align 8
  %61 = load i32, ptr %14, align 4
  %62 = load ptr, ptr %12, align 8
  %63 = load ptr, ptr %13, align 8
  %64 = call i32 @wtap_read_bytes(ptr noundef %60, ptr noundef null, i32 noundef %61, ptr noundef %62, ptr noundef %63)
  %65 = icmp ne i32 %64, 0
  br i1 %65, label %67, label %66

66:                                               ; preds = %59
  store i32 0, ptr %7, align 4
  br label %71

67:                                               ; preds = %59
  %68 = load ptr, ptr %11, align 8
  %69 = getelementptr inbounds %struct.wtapng_block_s, ptr %68, i32 0, i32 1
  store i32 1, ptr %69, align 4
  br label %70

70:                                               ; preds = %67, %58
  store i32 1, ptr %7, align 4
  br label %71

71:                                               ; preds = %70, %66, %57, %20
  %72 = load i32, ptr %7, align 4
  ret i32 %72
}