; Function Attrs: nounwind uwtable
define internal fastcc range(i32 0, 2) i32 @pcapng_read_unknown_block(ptr noundef %0, ptr noundef nonnull readonly captures(none) %1, ptr noundef readonly captures(none) %2, ptr noundef nonnull %3, ptr noundef %4, ptr noundef %5) unnamed_addr #0 {
  %7 = getelementptr inbounds nuw i8, ptr %1, i64 4
  %8 = load i32, ptr %7, align 4
  %9 = icmp ult i32 %8, 12
  br i1 %9, label %10, label %13

10:                                               ; preds = %6
  store i32 -13, ptr %4, align 4
  %11 = load i32, ptr %7, align 4
  %12 = tail call noalias ptr (ptr, ptr, ...) @wmem_strdup_printf(ptr noundef null, ptr noundef nonnull @.str.52, i32 noundef %11, i32 noundef 12) #16
  store ptr %12, ptr %5, align 8
  br label %30

13:                                               ; preds = %6
  %14 = add i32 %8, -12
  %15 = load ptr, ptr @block_handlers, align 8
  %.not = icmp eq ptr %15, null
  br i1 %.not, label %25, label %16

16:                                               ; preds = %13
  %17 = load i32, ptr %1, align 4
  %18 = zext i32 %17 to i64
  %19 = inttoptr i64 %18 to ptr
  %20 = tail call ptr @g_hash_table_lookup(ptr noundef nonnull %15, ptr noundef %19) #16
  %.not21 = icmp eq ptr %20, null
  br i1 %.not21, label %25, label %21

21:                                               ; preds = %16
  %22 = load ptr, ptr %20, align 8
  %23 = load i32, ptr %2, align 8
  %24 = tail call i32 %22(ptr noundef %0, i32 noundef %14, i32 noundef %23, ptr noundef nonnull %3, ptr noundef %4, ptr noundef %5) #16
  %.not23 = icmp eq i32 %24, 0
  br i1 %.not23, label %30, label %29

25:                                               ; preds = %16, %13
  %26 = tail call i32 @wtap_read_bytes(ptr noundef %0, ptr noundef null, i32 noundef %14, ptr noundef %4, ptr noundef %5) #16
  %.not22 = icmp eq i32 %26, 0
  br i1 %.not22, label %30, label %27

27:                                               ; preds = %25
  %28 = getelementptr inbounds nuw i8, ptr %3, i64 4
  store i32 1, ptr %28, align 4
  br label %29

29:                                               ; preds = %21, %27
  br label %30

30:                                               ; preds = %25, %21, %29, %10
  %.0 = phi i32 [ 0, %10 ], [ 1, %29 ], [ 0, %21 ], [ 0, %25 ]
  ret i32 %.0
}